target datalayout = "e-m:e-p270:32:32-p271:32:32-p272:64:64-i64:64-i128:128-f80:128-n8:16:32:64-S128"
target triple = "x86_64-pc-linux-gnu"

%struct.Map_NodeStruct_t_ = type { ptr, ptr, i32, i32, i32, i32, [3 x i32], [3 x float], float, ptr, ptr, ptr, ptr, [2 x %struct.Map_TimeStruct_t_], [2 x %struct.Map_TimeStruct_t_], [2 x ptr], ptr, ptr, ptr }
%struct.Map_TimeStruct_t_ = type { float, float, float }
%struct.Map_ManStruct_t_ = type { ptr, i32, ptr, i32, ptr, i32, i32, ptr, ptr, ptr, ptr, ptr, ptr, ptr, ptr, i32, i32, i32, i32, float, float, float, float, i32, i32, float, i32, i32, i32, i32, ptr, [6 x [2 x i32]], [10 x [32 x i32]], [32 x i32], [32 x i32], ptr, ptr, ptr, ptr, ptr, ptr, i32, i32, i32, i32, i32, i32, i64, i64, i64, i64, i64, i64, i64, i64, i64, i64, i64 }
%struct.Map_NodeVecStruct_t_ = type { ptr, i32, i32 }

; Function Attrs: nounwind uwtable
define void @Map_MappingEstimateRefs(ptr noundef %0) #0 {
  %2 = alloca ptr, align 8
  %3 = alloca ptr, align 8
  %4 = alloca i32, align 4
  store ptr %0, ptr %2, align 8, !tbaa !14
  call void @llvm.lifetime.start.p0(i64 8, ptr %3) #4
  call void @llvm.lifetime.start.p0(i64 4, ptr %4) #4
  store i32 0, ptr %4, align 4, !tbaa !8
  br label %5

5:                                                ; preds = %74, %1
  %6 = load i32, ptr %4, align 4, !tbaa !8
  %7 = load ptr, ptr %2, align 8, !tbaa !14
  %8 = getelementptr inbounds nuw %struct.Map_ManStruct_t_, ptr %7, i32 0, i32 8
  %9 = load ptr, ptr %8, align 8, !tbaa !16
  %10 = getelementptr inbounds nuw %struct.Map_NodeVecStruct_t_, ptr %9, i32 0, i32 1
  %11 = load i32, ptr %10, align 8, !tbaa !29
  %12 = icmp slt i32 %6, %11
  br i1 %12, label %13, label %77

13:                                               ; preds = %5
  %14 = load ptr, ptr %2, align 8, !tbaa !14
  %15 = getelementptr inbounds nuw %struct.Map_ManStruct_t_, ptr %14, i32 0, i32 8
  %16 = load ptr, ptr %15, align 8, !tbaa !16
  %17 = getelementptr inbounds nuw %struct.Map_NodeVecStruct_t_, ptr %16, i32 0, i32 0
  %18 = load ptr, ptr %17, align 8, !tbaa !31
  %19 = load i32, ptr %4, align 4, !tbaa !8
  %20 = sext i32 %19 to i64
  %21 = getelementptr inbounds ptr, ptr %18, i64 %20
  %22 = load ptr, ptr %21, align 8, !tbaa !3
  store ptr %22, ptr %3, align 8, !tbaa !3
  %23 = load ptr, ptr %3, align 8, !tbaa !3
  %24 = getelementptr inbounds nuw %struct.Map_NodeStruct_t_, ptr %23, i32 0, i32 7
  %25 = getelementptr inbounds [3 x float], ptr %24, i64 0, i64 0
  %26 = load float, ptr %25, align 4, !tbaa !12
  %27 = fpext float %26 to double
  %28 = load ptr, ptr %3, align 8, !tbaa !3
  %29 = getelementptr inbounds nuw %struct.Map_NodeStruct_t_, ptr %28, i32 0, i32 6
  %30 = getelementptr inbounds [3 x i32], ptr %29, i64 0, i64 0
  %31 = load i32, ptr %30, align 8, !tbaa !8
  %32 = sitofp i32 %31 to double
  %33 = fmul double 1.000000e+00, %32
  %34 = call double @llvm.fmuladd.f64(double 3.000000e+00, double %27, double %33)
  %35 = fdiv double %34, 4.000000e+00
  %36 = fptrunc double %35 to float
  %37 = load ptr, ptr %3, align 8, !tbaa !3
  %38 = getelementptr inbounds nuw %struct.Map_NodeStruct_t_, ptr %37, i32 0, i32 7
  %39 = getelementptr inbounds [3 x float], ptr %38, i64 0, i64 0
  store float %36, ptr %39, align 4, !tbaa !12
  %40 = load ptr, ptr %3, align 8, !tbaa !3
  %41 = getelementptr inbounds nuw %struct.Map_NodeStruct_t_, ptr %40, i32 0, i32 7
  %42 = getelementptr inbounds [3 x float], ptr %41, i64 0, i64 1
  %43 = load float, ptr %42, align 4, !tbaa !12
  %44 = fpext float %43 to double
  %45 = load ptr, ptr %3, align 8, !tbaa !3
  %46 = getelementptr inbounds nuw %struct.Map_NodeStruct_t_, ptr %45, i32 0, i32 6
  %47 = getelementptr inbounds [3 x i32], ptr %46, i64 0, i64 1
  %48 = load i32, ptr %47, align 4, !tbaa !8
  %49 = sitofp i32 %48 to double
  %50 = fmul double 1.000000e+00, %49
  %51 = call double @llvm.fmuladd.f64(double 3.000000e+00, double %44, double %50)
  %52 = fdiv double %51, 4.000000e+00
  %53 = fptrunc double %52 to float
  %54 = load ptr, ptr %3, align 8, !tbaa !3
  %55 = getelementptr inbounds nuw %struct.Map_NodeStruct_t_, ptr %54, i32 0, i32 7
  %56 = getelementptr inbounds [3 x float], ptr %55, i64 0, i64 1
  store float %53, ptr %56, align 4, !tbaa !12
  %57 = load ptr, ptr %3, align 8, !tbaa !3
  %58 = getelementptr inbounds nuw %struct.Map_NodeStruct_t_, ptr %57, i32 0, i32 7
  %59 = getelementptr inbounds [3 x float], ptr %58, i64 0, i64 2
  %60 = load float, ptr %59, align 4, !tbaa !12
  %61 = fpext float %60 to double
  %62 = load ptr, ptr %3, align 8, !tbaa !3
  %63 = getelementptr inbounds nuw %struct.Map_NodeStruct_t_, ptr %62, i32 0, i32 6
  %64 = getelementptr inbounds [3 x i32], ptr %63, i64 0, i64 2
  %65 = load i32, ptr %64, align 8, !tbaa !8
  %66 = sitofp i32 %65 to double
  %67 = fmul double 1.000000e+00, %66
  %68 = call double @llvm.fmuladd.f64(double 3.000000e+00, double %61, double %67)
  %69 = fdiv double %68, 4.000000e+00
  %70 = fptrunc double %69 to float
  %71 = load ptr, ptr %3, align 8, !tbaa !3
  %72 = getelementptr inbounds nuw %struct.Map_NodeStruct_t_, ptr %71, i32 0, i32 7
  %73 = getelementptr inbounds [3 x float], ptr %72, i64 0, i64 2
  store float %70, ptr %73, align 4, !tbaa !12
  br label %74

74:                                               ; preds = %13
  %75 = load i32, ptr %4, align 4, !tbaa !8
  %76 = add nsw i32 %75, 1
  store i32 %76, ptr %4, align 4, !tbaa !8
  br label %5, !llvm.loop !36

77:                                               ; preds = %5
  call void @llvm.lifetime.end.p0(i64 4, ptr %4) #4
  call void @llvm.lifetime.end.p0(i64 8, ptr %3) #4
  ret void
}