; Function Attrs: nofree norecurse nosync nounwind memory(readwrite, inaccessiblemem: none) uwtable
define void @Map_MappingEstimateRefs(ptr noundef readonly captures(none) %0) local_unnamed_addr #2 {
  %2 = getelementptr inbounds nuw i8, ptr %0, i64 56
  %3 = load ptr, ptr %2, align 8, !tbaa !12
  %4 = getelementptr inbounds nuw i8, ptr %3, i64 8
  %5 = load i32, ptr %4, align 8, !tbaa !26
  %6 = icmp sgt i32 %5, 0
  br i1 %6, label %.lr.ph, label %._crit_edge

.lr.ph:                                           ; preds = %1
  %7 = load ptr, ptr %3, align 8, !tbaa !28
  %wide.trip.count = zext nneg i32 %5 to i64
  br label %8

8:                                                ; preds = %.lr.ph, %8
  %indvars.iv = phi i64 [ 0, %.lr.ph ], [ %indvars.iv.next, %8 ]
  %9 = getelementptr inbounds nuw ptr, ptr %7, i64 %indvars.iv
  %10 = load ptr, ptr %9, align 8, !tbaa !29
  %11 = getelementptr inbounds nuw i8, ptr %10, i64 44
  %12 = load float, ptr %11, align 4, !tbaa !10
  %13 = fpext float %12 to double
  %14 = getelementptr inbounds nuw i8, ptr %10, i64 32
  %15 = load i32, ptr %14, align 8, !tbaa !8
  %16 = sitofp i32 %15 to double
  %17 = tail call double @llvm.fmuladd.f64(double %13, double 3.000000e+00, double %16)
  %18 = fmul double %17, 2.500000e-01
  %19 = fptrunc double %18 to float
  store float %19, ptr %11, align 4, !tbaa !10
  %20 = getelementptr inbounds nuw i8, ptr %10, i64 48
  %21 = load float, ptr %20, align 4, !tbaa !10
  %22 = fpext float %21 to double
  %23 = getelementptr inbounds nuw i8, ptr %10, i64 36
  %24 = load i32, ptr %23, align 4, !tbaa !8
  %25 = sitofp i32 %24 to double
  %26 = tail call double @llvm.fmuladd.f64(double %22, double 3.000000e+00, double %25)
  %27 = fmul double %26, 2.500000e-01
  %28 = fptrunc double %27 to float
  store float %28, ptr %20, align 4, !tbaa !10
  %29 = getelementptr inbounds nuw i8, ptr %10, i64 52
  %30 = load float, ptr %29, align 4, !tbaa !10
  %31 = fpext float %30 to double
  %32 = getelementptr inbounds nuw i8, ptr %10, i64 40
  %33 = load i32, ptr %32, align 8, !tbaa !8
  %34 = sitofp i32 %33 to double
  %35 = tail call double @llvm.fmuladd.f64(double %31, double 3.000000e+00, double %34)
  %36 = fmul double %35, 2.500000e-01
  %37 = fptrunc double %36 to float
  store float %37, ptr %29, align 4, !tbaa !10
  %indvars.iv.next = add nuw nsw i64 %indvars.iv, 1
  %exitcond.not = icmp eq i64 %indvars.iv.next, %wide.trip.count
  br i1 %exitcond.not, label %._crit_edge, label %8, !llvm.loop !35

._crit_edge:                                      ; preds = %8, %1
  ret void
}